; Function Attrs: cold nounwind optsize uwtable
define internal noundef i32 @mss4_decode_end(ptr noundef readonly captures(none) %0) #0 {
  %2 = getelementptr inbounds nuw i8, ptr %0, i64 32
  %3 = load ptr, ptr %2, align 8, !tbaa !4
  tail call void @av_frame_free(ptr noundef %3) #8
  %4 = getelementptr inbounds nuw i8, ptr %3, i64 1296
  br label %5

5:                                                ; preds = %1, %5
  %indvars.iv = phi i64 [ 0, %1 ], [ %indvars.iv.next, %5 ]
  %6 = getelementptr inbounds nuw [3 x ptr], ptr %4, i64 0, i64 %indvars.iv
  tail call void @av_freep(ptr noundef nonnull %6) #8
  %indvars.iv.next = add nuw nsw i64 %indvars.iv, 1
  %exitcond.not = icmp eq i64 %indvars.iv.next, 3
  br i1 %exitcond.not, label %7, label %5, !llvm.loop !82

7:                                                ; preds = %5
  ret i32 0
}